target datalayout = "e-m:e-p270:32:32-p271:32:32-p272:64:64-i64:64-i128:128-f80:128-n8:16:32:64-S128"
target triple = "x86_64-unknown-linux-gnu"

%"class.nla::nex" = type { ptr }
%class.ptr_vector = type { %class.vector }
%class.vector = type { ptr }
%"class.nla::nex_sum" = type { %"class.nla::nex", %class.ptr_vector }

; Function Attrs: mustprogress nounwind uwtable
define linkonce_odr hidden noundef nonnull align 8 dereferenceable(48) ptr @_ZN3nla3nex6to_mulEv(ptr noundef nonnull align 8 dereferenceable(8) %this) #5 comdat align 2 {
entry:
  %this.addr = alloca ptr, align 8
  store ptr %this, ptr %this.addr, align 8
  %this1 = load ptr, ptr %this.addr, align 8
  ret ptr %this1
}

; Function Attrs: mustprogress nounwind uwtable
define linkonce_odr hidden noundef nonnull align 8 dereferenceable(8) ptr @_ZN6vectorIPN3nla3nexELb0EjEixEj(ptr noundef nonnull align 8 dereferenceable(8) %this, i32 noundef %idx) #5 comdat align 2 {
entry:
  %this.addr = alloca ptr, align 8
  %idx.addr = alloca i32, align 4
  store ptr %this, ptr %this.addr, align 8
  store i32 %idx, ptr %idx.addr, align 4
  %this1 = load ptr, ptr %this.addr, align 8
  %m_data = getelementptr inbounds %class.vector, ptr %this1, i32 0, i32 0
  %0 = load ptr, ptr %m_data, align 8
  %1 = load i32, ptr %idx.addr, align 4
  %idxprom = zext i32 %1 to i64
  %arrayidx = getelementptr inbounds ptr, ptr %0, i64 %idxprom
  ret ptr %arrayidx
}

; Function Attrs: mustprogress nounwind uwtable
define linkonce_odr hidden noundef ptr @_ZN3nla6to_sumEPNS_3nexE(ptr noundef %a) #5 comdat {
entry:
  %a.addr = alloca ptr, align 8
  store ptr %a, ptr %a.addr, align 8
  %0 = load ptr, ptr %a.addr, align 8
  %call = call noundef nonnull align 8 dereferenceable(16) ptr @_ZN3nla3nex6to_sumEv(ptr noundef nonnull align 8 dereferenceable(8) %0)
  ret ptr %call
}

; Function Attrs: mustprogress uwtable
define linkonce_odr hidden noundef zeroext i1 @_ZNK3nla3nex6is_mulEv(ptr noundef nonnull align 8 dereferenceable(8) %this) #4 comdat align 2 {
entry:
  %this.addr = alloca ptr, align 8
  store ptr %this, ptr %this.addr, align 8
  %this1 = load ptr, ptr %this.addr, align 8
  %vtable = load ptr, ptr %this1, align 8
  %vfn = getelementptr inbounds ptr, ptr %vtable, i64 1
  %0 = load ptr, ptr %vfn, align 8
  %call = call noundef i32 %0(ptr noundef nonnull align 8 dereferenceable(8) %this1)
  %cmp = icmp eq i32 %call, 3
  ret i1 %cmp
}

; Function Attrs: mustprogress nounwind uwtable
define linkonce_odr hidden noundef ptr @_ZN3nla6to_mulEPNS_3nexE(ptr noundef %a) #5 comdat {
entry:
  %a.addr = alloca ptr, align 8
  store ptr %a, ptr %a.addr, align 8
  %0 = load ptr, ptr %a.addr, align 8
  %call = call noundef nonnull align 8 dereferenceable(48) ptr @_ZN3nla3nex6to_mulEv(ptr noundef nonnull align 8 dereferenceable(8) %0)
  ret ptr %call
}

; Function Attrs: mustprogress uwtable
define linkonce_odr hidden noundef nonnull align 8 dereferenceable(8) ptr @_ZN3nla7nex_sumixEj(ptr noundef nonnull align 8 dereferenceable(16) %this, i32 noundef %j) #4 comdat align 2 {
entry:
  %this.addr = alloca ptr, align 8
  %j.addr = alloca i32, align 4
  store ptr %this, ptr %this.addr, align 8
  store i32 %j, ptr %j.addr, align 4
  %this1 = load ptr, ptr %this.addr, align 8
  %m_children = getelementptr inbounds %"class.nla::nex_sum", ptr %this1, i32 0, i32 1
  %0 = load i32, ptr %j.addr, align 4
  %call = call noundef nonnull align 8 dereferenceable(8) ptr @_ZN6vectorIPN3nla3nexELb0EjEixEj(ptr noundef nonnull align 8 dereferenceable(8) %m_children, i32 noundef %0)
  ret ptr %call
}

; Function Attrs: mustprogress nounwind uwtable
define linkonce_odr hidden noundef nonnull align 8 dereferenceable(16) ptr @_ZN3nla3nex6to_sumEv(ptr noundef nonnull align 8 dereferenceable(8) %this) #5 comdat align 2 {
entry:
  %this.addr = alloca ptr, align 8
  store ptr %this, ptr %this.addr, align 8
  %this1 = load ptr, ptr %this.addr, align 8
  ret ptr %this1
}

; Function Attrs: mustprogress uwtable
define linkonce_odr hidden noundef zeroext i1 @_ZNK3nla3nex6is_sumEv(ptr noundef nonnull align 8 dereferenceable(8) %this) #4 comdat align 2 {
entry:
  %this.addr = alloca ptr, align 8
  store ptr %this, ptr %this.addr, align 8
  %this1 = load ptr, ptr %this.addr, align 8
  %vtable = load ptr, ptr %this1, align 8
  %vfn = getelementptr inbounds ptr, ptr %vtable, i64 1
  %0 = load ptr, ptr %vfn, align 8
  %call = call noundef i32 %0(ptr noundef nonnull align 8 dereferenceable(8) %this1)
  %cmp = icmp eq i32 %call, 2
  ret i1 %cmp
}

; Function Attrs: mustprogress uwtable
define hidden noundef ptr @_ZN3nla11nex_creator8simplifyEPNS_3nexE(ptr noundef nonnull align 8 dereferenceable(176) %this, ptr noundef %e) #4 align 2 {
entry:
  %this.addr = alloca ptr, align 8
  %e.addr = alloca ptr, align 8
  %es = alloca ptr, align 8
  store ptr %this, ptr %this.addr, align 8
  store ptr %e, ptr %e.addr, align 8
  %this1 = load ptr, ptr %this.addr, align 8
  %0 = load ptr, ptr %e.addr, align 8
  %call = call noundef zeroext i1 @_ZNK3nla3nex6is_mulEv(ptr noundef nonnull align 8 dereferenceable(8) %0)
  br i1 %call, label %if.then, label %if.else

if.then:                                          ; preds = %entry
  %1 = load ptr, ptr %e.addr, align 8
  %call2 = call noundef ptr @_ZN3nla6to_mulEPNS_3nexE(ptr noundef %1)
  %call3 = call noundef ptr @_ZN3nla11nex_creator12simplify_mulEPNS_7nex_mulE(ptr noundef nonnull align 8 dereferenceable(176) %this1, ptr noundef %call2)
  store ptr %call3, ptr %es, align 8
  br label %if.end9

if.else:                                          ; preds = %entry
  %2 = load ptr, ptr %e.addr, align 8
  %call4 = call noundef zeroext i1 @_ZNK3nla3nex6is_sumEv(ptr noundef nonnull align 8 dereferenceable(8) %2)
  br i1 %call4, label %if.then5, label %if.else8

if.then5:                                         ; preds = %if.else
  %3 = load ptr, ptr %e.addr, align 8
  %call6 = call noundef ptr @_ZN3nla6to_sumEPNS_3nexE(ptr noundef %3)
  %call7 = call noundef ptr @_ZN3nla11nex_creator12simplify_sumEPNS_7nex_sumE(ptr noundef nonnull align 8 dereferenceable(176) %this1, ptr noundef %call6)
  store ptr %call7, ptr %es, align 8
  br label %if.end

if.else8:                                         ; preds = %if.else
  %4 = load ptr, ptr %e.addr, align 8
  store ptr %4, ptr %es, align 8
  br label %if.end

if.end:                                           ; preds = %if.else8, %if.then5
  br label %if.end9

if.end9:                                          ; preds = %if.end, %if.then
  %5 = load ptr, ptr %es, align 8
  ret ptr %5
}

; Function Attrs: mustprogress uwtable
define linkonce_odr hidden noundef zeroext i1 @_ZNK3nla3nex13is_elementaryEv(ptr noundef nonnull align 8 dereferenceable(8) %this) #4 comdat align 2 {
entry:
  %retval = alloca i1, align 1
  %this.addr = alloca ptr, align 8
  store ptr %this, ptr %this.addr, align 8
  %this1 = load ptr, ptr %this.addr, align 8
  %vtable = load ptr, ptr %this1, align 8
  %vfn = getelementptr inbounds ptr, ptr %vtable, i64 1
  %0 = load ptr, ptr %vfn, align 8
  %call = call noundef i32 %0(ptr noundef nonnull align 8 dereferenceable(8) %this1)
  switch i32 %call, label %sw.default [
    i32 2, label %sw.bb
    i32 3, label %sw.bb
  ]

sw.bb:                                            ; preds = %entry, %entry
  store i1 false, ptr %retval, align 1
  br label %return

sw.default:                                       ; preds = %entry
  store i1 true, ptr %retval, align 1
  br label %return

return:                                           ; preds = %sw.default, %sw.bb
  %1 = load i1, ptr %retval, align 1
  ret i1 %1
}

; Function Attrs: mustprogress uwtable
define hidden noundef ptr @_ZN3nla11nex_creator8canonizeEPKNS_3nexE(ptr noundef nonnull align 8 dereferenceable(176) %this, ptr noundef %a) #4 align 2 {
entry:
  %retval = alloca ptr, align 8
  %this.addr = alloca ptr, align 8
  %a.addr = alloca ptr, align 8
  %t = alloca ptr, align 8
  %s = alloca ptr, align 8
  %j = alloca i32, align 4
  store ptr %this, ptr %this.addr, align 8
  store ptr %a, ptr %a.addr, align 8
  %this1 = load ptr, ptr %this.addr, align 8
  %0 = load ptr, ptr %a.addr, align 8
  %call = call noundef zeroext i1 @_ZNK3nla3nex13is_elementaryEv(ptr noundef nonnull align 8 dereferenceable(8) %0)
  br i1 %call, label %if.then, label %if.end

if.then:                                          ; preds = %entry
  %1 = load ptr, ptr %a.addr, align 8
  %call2 = call noundef ptr @_ZN3nla11nex_creator5cloneEPKNS_3nexE(ptr noundef nonnull align 8 dereferenceable(176) %this1, ptr noundef %1)
  store ptr %call2, ptr %retval, align 8
  br label %return

if.end:                                           ; preds = %entry
  %2 = load ptr, ptr %a.addr, align 8
  %call3 = call noundef ptr @_ZN3nla11nex_creator5cloneEPKNS_3nexE(ptr noundef nonnull align 8 dereferenceable(176) %this1, ptr noundef %2)
  %call4 = call noundef ptr @_ZN3nla11nex_creator8simplifyEPNS_3nexE(ptr noundef nonnull align 8 dereferenceable(176) %this1, ptr noundef %call3)
  store ptr %call4, ptr %t, align 8
  %3 = load ptr, ptr %t, align 8
  %call5 = call noundef zeroext i1 @_ZNK3nla3nex6is_sumEv(ptr noundef nonnull align 8 dereferenceable(8) %3)
  br i1 %call5, label %if.then6, label %if.end13

if.then6:                                         ; preds = %if.end
  %4 = load ptr, ptr %t, align 8
  %call7 = call noundef nonnull align 8 dereferenceable(16) ptr @_ZN3nla3nex6to_sumEv(ptr noundef nonnull align 8 dereferenceable(8) %4)
  store ptr %call7, ptr %s, align 8
  store i32 0, ptr %j, align 4
  br label %for.cond

for.cond:                                         ; preds = %for.inc, %if.then6
  %5 = load i32, ptr %j, align 4
  %6 = load ptr, ptr %s, align 8
  %vtable = load ptr, ptr %6, align 8
  %vfn = getelementptr inbounds ptr, ptr %vtable, i64 0
  %7 = load ptr, ptr %vfn, align 8
  %call8 = call noundef i32 %7(ptr noundef nonnull align 8 dereferenceable(16) %6)
  %cmp = icmp ult i32 %5, %call8
  br i1 %cmp, label %for.body, label %for.end

for.body:                                         ; preds = %for.cond
  %8 = load ptr, ptr %s, align 8
  %9 = load i32, ptr %j, align 4
  %call9 = call noundef nonnull align 8 dereferenceable(8) ptr @_ZN3nla7nex_sumixEj(ptr noundef nonnull align 8 dereferenceable(16) %8, i32 noundef %9)
  %10 = load ptr, ptr %call9, align 8
  %call10 = call noundef ptr @_ZN3nla11nex_creator8canonizeEPKNS_3nexE(ptr noundef nonnull align 8 dereferenceable(176) %this1, ptr noundef %10)
  %11 = load ptr, ptr %s, align 8
  %12 = load i32, ptr %j, align 4
  %call11 = call noundef nonnull align 8 dereferenceable(8) ptr @_ZN3nla7nex_sumixEj(ptr noundef nonnull align 8 dereferenceable(16) %11, i32 noundef %12)
  store ptr %call10, ptr %call11, align 8
  br label %for.inc

for.inc:                                          ; preds = %for.body
  %13 = load i32, ptr %j, align 4
  %inc = add i32 %13, 1
  store i32 %inc, ptr %j, align 4
  br label %for.cond, !llvm.loop !12

for.end:                                          ; preds = %for.cond
  %14 = load ptr, ptr %s, align 8
  %call12 = call noundef ptr @_ZN3nla11nex_creator8simplifyEPNS_3nexE(ptr noundef nonnull align 8 dereferenceable(176) %this1, ptr noundef %14)
  store ptr %call12, ptr %t, align 8
  %15 = load ptr, ptr %t, align 8
  store ptr %15, ptr %retval, align 8
  br label %return

if.end13:                                         ; preds = %if.end
  %16 = load ptr, ptr %t, align 8
  %call14 = call noundef ptr @_ZN3nla6to_mulEPNS_3nexE(ptr noundef %16)
  %call15 = call noundef ptr @_ZN3nla11nex_creator12canonize_mulEPNS_7nex_mulE(ptr noundef nonnull align 8 dereferenceable(176) %this1, ptr noundef %call14)
  store ptr %call15, ptr %retval, align 8
  br label %return

return:                                           ; preds = %if.end13, %for.end, %if.then
  %17 = load ptr, ptr %retval, align 8
  ret ptr %17
}