; Function Attrs: mustprogress uwtable
define hidden noundef ptr @_ZN3nla11nex_creator8canonizeEPKNS_3nexE(ptr noundef nonnull align 8 dereferenceable(176) %this, ptr noundef %a) local_unnamed_addr #3 align 2 {
entry:
  %vtable.i = load ptr, ptr %a, align 8
  %vfn.i = getelementptr inbounds i8, ptr %vtable.i, i64 8
  %0 = load ptr, ptr %vfn.i, align 8
  %call.i = tail call noundef i32 %0(ptr noundef nonnull align 8 dereferenceable(8) %a)
  %1 = and i32 %call.i, -2
  %switch.i.not = icmp eq i32 %1, 2
  %call3 = tail call noundef ptr @_ZN3nla11nex_creator5cloneEPKNS_3nexE(ptr noundef nonnull align 8 dereferenceable(176) %this, ptr noundef nonnull %a)
  br i1 %switch.i.not, label %if.end, label %return

if.end:                                           ; preds = %entry
  %vtable.i.i = load ptr, ptr %call3, align 8
  %vfn.i.i = getelementptr inbounds i8, ptr %vtable.i.i, i64 8
  %2 = load ptr, ptr %vfn.i.i, align 8
  %call.i.i = tail call noundef i32 %2(ptr noundef nonnull align 8 dereferenceable(8) %call3)
  %cmp.i.i = icmp eq i32 %call.i.i, 3
  br i1 %cmp.i.i, label %if.then.i, label %if.else.i

if.then.i:                                        ; preds = %if.end
  %call3.i = tail call noundef ptr @_ZN3nla11nex_creator12simplify_mulEPNS_7nex_mulE(ptr noundef nonnull align 8 dereferenceable(176) %this, ptr noundef nonnull %call3)
  br label %_ZN3nla11nex_creator8simplifyEPNS_3nexE.exit

if.else.i:                                        ; preds = %if.end
  %vtable.i5.i = load ptr, ptr %call3, align 8
  %vfn.i6.i = getelementptr inbounds i8, ptr %vtable.i5.i, i64 8
  %3 = load ptr, ptr %vfn.i6.i, align 8
  %call.i7.i = tail call noundef i32 %3(ptr noundef nonnull align 8 dereferenceable(8) %call3)
  %cmp.i8.i = icmp eq i32 %call.i7.i, 2
  br i1 %cmp.i8.i, label %if.then5.i, label %_ZN3nla11nex_creator8simplifyEPNS_3nexE.exit

if.then5.i:                                       ; preds = %if.else.i
  %call7.i = tail call noundef ptr @_ZN3nla11nex_creator12simplify_sumEPNS_7nex_sumE(ptr noundef nonnull align 8 dereferenceable(176) %this, ptr noundef %call3)
  br label %_ZN3nla11nex_creator8simplifyEPNS_3nexE.exit

_ZN3nla11nex_creator8simplifyEPNS_3nexE.exit:     ; preds = %if.then.i, %if.else.i, %if.then5.i
  %es.0.i = phi ptr [ %call3.i, %if.then.i ], [ %call7.i, %if.then5.i ], [ %call3, %if.else.i ]
  %vtable.i12 = load ptr, ptr %es.0.i, align 8
  %vfn.i13 = getelementptr inbounds i8, ptr %vtable.i12, i64 8
  %4 = load ptr, ptr %vfn.i13, align 8
  %call.i14 = tail call noundef i32 %4(ptr noundef nonnull align 8 dereferenceable(8) %es.0.i)
  %cmp.i = icmp eq i32 %call.i14, 2
  br i1 %cmp.i, label %for.cond.preheader, label %if.end13

for.cond.preheader:                               ; preds = %_ZN3nla11nex_creator8simplifyEPNS_3nexE.exit
  %vtable33 = load ptr, ptr %es.0.i, align 8
  %5 = load ptr, ptr %vtable33, align 8
  %call834 = tail call noundef i32 %5(ptr noundef nonnull align 8 dereferenceable(16) %es.0.i)
  %cmp35.not = icmp eq i32 %call834, 0
  br i1 %cmp35.not, label %for.end, label %for.body.lr.ph

for.body.lr.ph:                                   ; preds = %for.cond.preheader
  %m_children.i = getelementptr inbounds i8, ptr %es.0.i, i64 8
  br label %for.body

for.body:                                         ; preds = %for.body.lr.ph, %for.body
  %indvars.iv = phi i64 [ 0, %for.body.lr.ph ], [ %indvars.iv.next, %for.body ]
  %6 = load ptr, ptr %m_children.i, align 8
  %arrayidx.i.i = getelementptr inbounds ptr, ptr %6, i64 %indvars.iv
  %7 = load ptr, ptr %arrayidx.i.i, align 8
  %call10 = tail call noundef ptr @_ZN3nla11nex_creator8canonizeEPKNS_3nexE(ptr noundef nonnull align 8 dereferenceable(176) %this, ptr noundef %7)
  %8 = load ptr, ptr %m_children.i, align 8
  %arrayidx.i.i17 = getelementptr inbounds ptr, ptr %8, i64 %indvars.iv
  store ptr %call10, ptr %arrayidx.i.i17, align 8
  %indvars.iv.next = add nuw nsw i64 %indvars.iv, 1
  %vtable = load ptr, ptr %es.0.i, align 8
  %9 = load ptr, ptr %vtable, align 8
  %call8 = tail call noundef i32 %9(ptr noundef nonnull align 8 dereferenceable(16) %es.0.i)
  %10 = zext i32 %call8 to i64
  %cmp = icmp ult i64 %indvars.iv.next, %10
  br i1 %cmp, label %for.body, label %for.end, !llvm.loop !49

for.end:                                          ; preds = %for.body, %for.cond.preheader
  %vtable.i.i18 = load ptr, ptr %es.0.i, align 8
  %vfn.i.i19 = getelementptr inbounds i8, ptr %vtable.i.i18, i64 8
  %11 = load ptr, ptr %vfn.i.i19, align 8
  %call.i.i20 = tail call noundef i32 %11(ptr noundef nonnull align 8 dereferenceable(8) %es.0.i)
  %cmp.i.i21 = icmp eq i32 %call.i.i20, 3
  br i1 %cmp.i.i21, label %if.then.i30, label %if.else.i22

if.then.i30:                                      ; preds = %for.end
  %call3.i31 = tail call noundef ptr @_ZN3nla11nex_creator12simplify_mulEPNS_7nex_mulE(ptr noundef nonnull align 8 dereferenceable(176) %this, ptr noundef nonnull %es.0.i)
  br label %return

if.else.i22:                                      ; preds = %for.end
  %vtable.i5.i23 = load ptr, ptr %es.0.i, align 8
  %vfn.i6.i24 = getelementptr inbounds i8, ptr %vtable.i5.i23, i64 8
  %12 = load ptr, ptr %vfn.i6.i24, align 8
  %call.i7.i25 = tail call noundef i32 %12(ptr noundef nonnull align 8 dereferenceable(8) %es.0.i)
  %cmp.i8.i26 = icmp eq i32 %call.i7.i25, 2
  br i1 %cmp.i8.i26, label %if.then5.i28, label %return

if.then5.i28:                                     ; preds = %if.else.i22
  %call7.i29 = tail call noundef ptr @_ZN3nla11nex_creator12simplify_sumEPNS_7nex_sumE(ptr noundef nonnull align 8 dereferenceable(176) %this, ptr noundef %es.0.i)
  br label %return

if.end13:                                         ; preds = %_ZN3nla11nex_creator8simplifyEPNS_3nexE.exit
  %call15 = tail call noundef ptr @_ZN3nla11nex_creator12canonize_mulEPNS_7nex_mulE(ptr noundef nonnull align 8 dereferenceable(176) %this, ptr noundef nonnull %es.0.i)
  br label %return

return:                                           ; preds = %entry, %if.then5.i28, %if.else.i22, %if.then.i30, %if.end13
  %retval.0 = phi ptr [ %call15, %if.end13 ], [ %call3.i31, %if.then.i30 ], [ %call7.i29, %if.then5.i28 ], [ %es.0.i, %if.else.i22 ], [ %call3, %entry ]
  ret ptr %retval.0
}